target datalayout = "e-m:e-p270:32:32-p271:32:32-p272:64:64-i64:64-i128:128-f80:128-n8:16:32:64-S128"
target triple = "x86_64-pc-linux-gnu"

%struct.rb_data_type_struct = type { ptr, %struct.anon, ptr, ptr, i64 }
%struct.anon = type { ptr, ptr, ptr, ptr, [1 x ptr] }
%struct.RTypedData = type { %struct.RBasic, ptr, i64, ptr }
%struct.RBasic = type { i64, i64 }

@ossl_bn_type = internal constant %struct.rb_data_type_struct { ptr @.str.62, %struct.anon { ptr null, ptr @ossl_bn_free, ptr null, ptr null, [1 x ptr] zeroinitializer }, ptr null, ptr null, i64 289 }, align 8
@eBNError = internal global i64 0, align 8
@rb_eRuntimeError = external global i64, align 8
@.str = private unnamed_addr constant [23 x i8] c"BN wasn't initialized!\00", align 1
@ossl_bn_ctx_key = internal global ptr null, align 8
@.str.2 = private unnamed_addr constant [19 x i8] c"Cannot init BN_CTX\00", align 1

; Function Attrs: nounwind sspstrong uwtable
define ptr @ossl_bn_ctx_get() #0 {
  %1 = alloca ptr, align 8
  call void @llvm.lifetime.start.p0(i64 8, ptr %1) #20
  %2 = load ptr, ptr @ossl_bn_ctx_key, align 8, !tbaa !19
  %3 = call ptr @rb_ractor_local_storage_ptr(ptr noundef %2)
  store ptr %3, ptr %1, align 8, !tbaa !21
  %4 = load ptr, ptr %1, align 8, !tbaa !21
  %5 = icmp ne ptr %4, null
  br i1 %5, label %14, label %6

6:                                                ; preds = %0
  %7 = call ptr @BN_CTX_new()
  store ptr %7, ptr %1, align 8, !tbaa !21
  %8 = icmp ne ptr %7, null
  br i1 %8, label %11, label %9

9:                                                ; preds = %6
  %10 = load i64, ptr @rb_eRuntimeError, align 8, !tbaa !11
  call void (i64, ptr, ...) @ossl_raise(i64 noundef %10, ptr noundef @.str.2) #21
  unreachable

11:                                               ; preds = %6
  %12 = load ptr, ptr @ossl_bn_ctx_key, align 8, !tbaa !19
  %13 = load ptr, ptr %1, align 8, !tbaa !21
  call void @rb_ractor_local_storage_ptr_set(ptr noundef %12, ptr noundef %13)
  br label %14

14:                                               ; preds = %11, %0
  %15 = load ptr, ptr %1, align 8, !tbaa !21
  call void @llvm.lifetime.end.p0(i64 8, ptr %1) #20
  ret ptr %15
}

; Function Attrs: nounwind sspstrong uwtable
define internal i64 @ossl_bn_gcd(i64 noundef %0, i64 noundef %1) #0 {
  %3 = alloca i64, align 8
  %4 = alloca i64, align 8
  %5 = alloca ptr, align 8
  %6 = alloca ptr, align 8
  %7 = alloca ptr, align 8
  %8 = alloca i64, align 8
  store i64 %0, ptr %3, align 8, !tbaa !11
  store i64 %1, ptr %4, align 8, !tbaa !11
  call void @llvm.lifetime.start.p0(i64 8, ptr %5) #20
  call void @llvm.lifetime.start.p0(i64 8, ptr %6) #20
  %9 = call ptr @ossl_bn_value_ptr(ptr noundef %4)
  store ptr %9, ptr %6, align 8, !tbaa !6
  call void @llvm.lifetime.start.p0(i64 8, ptr %7) #20
  call void @llvm.lifetime.start.p0(i64 8, ptr %8) #20
  br label %10

10:                                               ; preds = %2
  %11 = load i64, ptr %3, align 8, !tbaa !11
  %12 = call ptr @rb_check_typeddata(i64 noundef %11, ptr noundef @ossl_bn_type)
  store ptr %12, ptr %5, align 8, !tbaa !6
  %13 = load ptr, ptr %5, align 8, !tbaa !6
  %14 = icmp ne ptr %13, null
  br i1 %14, label %17, label %15

15:                                               ; preds = %10
  %16 = load i64, ptr @rb_eRuntimeError, align 8, !tbaa !11
  call void (i64, ptr, ...) @ossl_raise(i64 noundef %16, ptr noundef @.str) #21
  unreachable

17:                                               ; preds = %10
  br label %18

18:                                               ; preds = %17
  br label %19

19:                                               ; preds = %18
  %20 = load i64, ptr %3, align 8, !tbaa !11
  %21 = call i64 @rb_obj_class(i64 noundef %20)
  %22 = call i64 @rb_data_typed_object_wrap(i64 noundef %21, ptr noundef null, ptr noundef @ossl_bn_type)
  store i64 %22, ptr %8, align 8, !tbaa !11
  %23 = call ptr @BN_new()
  store ptr %23, ptr %7, align 8, !tbaa !6
  %24 = icmp ne ptr %23, null
  br i1 %24, label %27, label %25

25:                                               ; preds = %19
  %26 = load i64, ptr @eBNError, align 8, !tbaa !11
  call void (i64, ptr, ...) @ossl_raise(i64 noundef %26, ptr noundef null) #21
  unreachable

27:                                               ; preds = %19
  %28 = load ptr, ptr %7, align 8, !tbaa !6
  %29 = load ptr, ptr %5, align 8, !tbaa !6
  %30 = load ptr, ptr %6, align 8, !tbaa !6
  %31 = call ptr @ossl_bn_ctx_get()
  %32 = call i32 @BN_gcd(ptr noundef %28, ptr noundef %29, ptr noundef %30, ptr noundef %31)
  %33 = icmp sle i32 %32, 0
  br i1 %33, label %34, label %37

34:                                               ; preds = %27
  %35 = load ptr, ptr %7, align 8, !tbaa !6
  call void @BN_free(ptr noundef %35)
  %36 = load i64, ptr @eBNError, align 8, !tbaa !11
  call void (i64, ptr, ...) @ossl_raise(i64 noundef %36, ptr noundef null) #21
  unreachable

37:                                               ; preds = %27
  br label %38

38:                                               ; preds = %37
  %39 = load ptr, ptr %7, align 8, !tbaa !6
  %40 = icmp ne ptr %39, null
  br i1 %40, label %43, label %41

41:                                               ; preds = %38
  %42 = load i64, ptr @rb_eRuntimeError, align 8, !tbaa !11
  call void (i64, ptr, ...) @ossl_raise(i64 noundef %42, ptr noundef @.str) #21
  unreachable

43:                                               ; preds = %38
  %44 = load ptr, ptr %7, align 8, !tbaa !6
  %45 = load i64, ptr %8, align 8, !tbaa !11
  %46 = inttoptr i64 %45 to ptr
  %47 = getelementptr inbounds nuw %struct.RTypedData, ptr %46, i32 0, i32 3
  store ptr %44, ptr %47, align 8, !tbaa !13
  br label %48

48:                                               ; preds = %43
  br label %49

49:                                               ; preds = %48
  %50 = load i64, ptr %8, align 8, !tbaa !11
  call void @llvm.lifetime.end.p0(i64 8, ptr %8) #20
  call void @llvm.lifetime.end.p0(i64 8, ptr %7) #20
  call void @llvm.lifetime.end.p0(i64 8, ptr %6) #20
  call void @llvm.lifetime.end.p0(i64 8, ptr %5) #20
  ret i64 %50
}